target datalayout = "e-m:e-p270:32:32-p271:32:32-p272:64:64-i64:64-i128:128-f80:128-n8:16:32:64-S128"
target triple = "x86_64-pc-linux-gnu"

%"class.std::locale" = type { ptr }
%class.cmGeneratedFileStreamBase = type <{ %"class.std::__cxx11::basic_string", %"class.std::__cxx11::basic_string", %"class.std::__cxx11::basic_string", i8, i8, i8, i8, [4 x i8] }>
%"class.std::__cxx11::basic_string" = type { %"struct.std::__cxx11::basic_string<char>::_Alloc_hider", i64, %union.anon }
%"struct.std::__cxx11::basic_string<char>::_Alloc_hider" = type { ptr }
%union.anon = type { i64, [8 x i8] }
%"class.std::ios_base" = type { ptr, i64, i64, i32, i32, i32, ptr, %"struct.std::ios_base::_Words", [8 x %"struct.std::ios_base::_Words"], i32, ptr, %"class.std::locale" }
%"struct.std::ios_base::_Words" = type { ptr, i64 }

@.str = private unnamed_addr constant [29 x i8] c"Cannot open file for write: \00", align 1
@.str.1 = private unnamed_addr constant [1 x i8] zeroinitializer, align 1
@__const.cmGeneratedFileStream.magic = private unnamed_addr constant [3 x i8] c"\EF\BB\BF", align 1

; Function Attrs: mustprogress nounwind uwtable
define linkonce_odr dso_local void @_ZNKSt8ios_base6getlocEv(ptr dead_on_unwind noalias writable sret(%"class.std::locale") align 8 %0, ptr noundef nonnull align 8 dereferenceable(216) %1) #5 comdat align 2 {
  %3 = alloca ptr, align 8
  %4 = alloca ptr, align 8
  store ptr %0, ptr %3, align 8
  store ptr %1, ptr %4, align 8
  %5 = load ptr, ptr %4, align 8
  %6 = getelementptr inbounds %"class.std::ios_base", ptr %5, i32 0, i32 11
  call void @_ZNSt6localeC1ERKS_(ptr noundef nonnull align 8 dereferenceable(8) %0, ptr noundef nonnull align 8 dereferenceable(8) %6) #3
  ret void
}

; Function Attrs: mustprogress uwtable
define dso_local void @_ZN25cmGeneratedFileStreamBaseC2ERKNSt7__cxx1112basic_stringIcSt11char_traitsIcESaIcEEE(ptr noundef nonnull align 8 dereferenceable(100) %0, ptr noundef nonnull align 8 dereferenceable(32) %1) unnamed_addr #4 align 2 personality ptr @__gxx_personality_v0 {
  %3 = alloca ptr, align 8
  %4 = alloca ptr, align 8
  %5 = alloca ptr, align 8
  %6 = alloca i32, align 4
  store ptr %0, ptr %3, align 8
  store ptr %1, ptr %4, align 8
  %7 = load ptr, ptr %3, align 8
  %8 = getelementptr inbounds %class.cmGeneratedFileStreamBase, ptr %7, i32 0, i32 0
  call void @_ZNSt7__cxx1112basic_stringIcSt11char_traitsIcESaIcEEC1Ev(ptr noundef nonnull align 8 dereferenceable(32) %8) #3
  %9 = getelementptr inbounds %class.cmGeneratedFileStreamBase, ptr %7, i32 0, i32 1
  call void @_ZNSt7__cxx1112basic_stringIcSt11char_traitsIcESaIcEEC1Ev(ptr noundef nonnull align 8 dereferenceable(32) %9) #3
  %10 = getelementptr inbounds %class.cmGeneratedFileStreamBase, ptr %7, i32 0, i32 2
  call void @_ZNSt7__cxx1112basic_stringIcSt11char_traitsIcESaIcEEC1Ev(ptr noundef nonnull align 8 dereferenceable(32) %10) #3
  %11 = getelementptr inbounds %class.cmGeneratedFileStreamBase, ptr %7, i32 0, i32 3
  store i8 0, ptr %11, align 8
  %12 = getelementptr inbounds %class.cmGeneratedFileStreamBase, ptr %7, i32 0, i32 4
  store i8 0, ptr %12, align 1
  %13 = getelementptr inbounds %class.cmGeneratedFileStreamBase, ptr %7, i32 0, i32 5
  store i8 0, ptr %13, align 2
  %14 = getelementptr inbounds %class.cmGeneratedFileStreamBase, ptr %7, i32 0, i32 6
  store i8 1, ptr %14, align 1
  %15 = load ptr, ptr %4, align 8
  invoke void @_ZN25cmGeneratedFileStreamBase4OpenERKNSt7__cxx1112basic_stringIcSt11char_traitsIcESaIcEEE(ptr noundef nonnull align 8 dereferenceable(100) %7, ptr noundef nonnull align 8 dereferenceable(32) %15)
          to label %16 unwind label %17

16:                                               ; preds = %2
  ret void

17:                                               ; preds = %2
  %18 = landingpad { ptr, i32 }
          cleanup
  %19 = extractvalue { ptr, i32 } %18, 0
  store ptr %19, ptr %5, align 8
  %20 = extractvalue { ptr, i32 } %18, 1
  store i32 %20, ptr %6, align 4
  call void @_ZNSt7__cxx1112basic_stringIcSt11char_traitsIcESaIcEED1Ev(ptr noundef nonnull align 8 dereferenceable(32) %10) #3
  call void @_ZNSt7__cxx1112basic_stringIcSt11char_traitsIcESaIcEED1Ev(ptr noundef nonnull align 8 dereferenceable(32) %9) #3
  call void @_ZNSt7__cxx1112basic_stringIcSt11char_traitsIcESaIcEED1Ev(ptr noundef nonnull align 8 dereferenceable(32) %8) #3
  br label %21

21:                                               ; preds = %17
  %22 = load ptr, ptr %5, align 8
  %23 = load i32, ptr %6, align 4
  %24 = insertvalue { ptr, i32 } poison, ptr %22, 0
  %25 = insertvalue { ptr, i32 } %24, i32 %23, 1
  resume { ptr, i32 } %25
}

; Function Attrs: mustprogress uwtable
define dso_local void @_ZN21cmGeneratedFileStreamC2ERKNSt7__cxx1112basic_stringIcSt11char_traitsIcESaIcEEEb16codecvt_Encoding(ptr noundef nonnull align 8 dereferenceable(348) %0, ptr noundef %1, ptr noundef nonnull align 8 dereferenceable(32) %2, i1 noundef zeroext %3, i32 noundef %4) unnamed_addr #4 align 2 personality ptr @__gxx_personality_v0 {
  %6 = alloca ptr, align 8
  %7 = alloca ptr, align 8
  %8 = alloca ptr, align 8
  %9 = alloca i8, align 1
  %10 = alloca i32, align 4
  %11 = alloca ptr, align 8
  %12 = alloca i32, align 4
  %13 = alloca %"class.std::__cxx11::basic_string", align 8
  %14 = alloca %"class.std::locale", align 8
  %15 = alloca %"class.std::locale", align 8
  %16 = alloca %"class.std::locale", align 8
  %17 = alloca [3 x i8], align 1
  store ptr %0, ptr %6, align 8
  store ptr %1, ptr %7, align 8
  store ptr %2, ptr %8, align 8
  %18 = zext i1 %3 to i8
  store i8 %18, ptr %9, align 1
  store i32 %4, ptr %10, align 4
  %19 = load ptr, ptr %6, align 8
  %20 = load ptr, ptr %7, align 8
  %21 = getelementptr inbounds i8, ptr %19, i64 248
  %22 = load ptr, ptr %8, align 8
  call void @_ZN25cmGeneratedFileStreamBaseC2ERKNSt7__cxx1112basic_stringIcSt11char_traitsIcESaIcEEE(ptr noundef nonnull align 8 dereferenceable(100) %21, ptr noundef nonnull align 8 dereferenceable(32) %22)
  %23 = load ptr, ptr %20, align 8
  store ptr %23, ptr %19, align 8
  %24 = getelementptr inbounds ptr, ptr %20, i64 5
  %25 = load ptr, ptr %24, align 8
  %26 = load ptr, ptr %19, align 8
  %27 = getelementptr i8, ptr %26, i64 -24
  %28 = load i64, ptr %27, align 8
  %29 = getelementptr inbounds i8, ptr %19, i64 %28
  store ptr %25, ptr %29, align 8
  %30 = getelementptr inbounds i8, ptr %19, i64 248
  %31 = getelementptr inbounds %class.cmGeneratedFileStreamBase, ptr %30, i32 0, i32 2
  %32 = call noundef ptr @_ZNKSt7__cxx1112basic_stringIcSt11char_traitsIcESaIcEE5c_strEv(ptr noundef nonnull align 8 dereferenceable(32) %31) #3
  %33 = getelementptr inbounds ptr, ptr %20, i64 1
  invoke void @_ZNSt14basic_ofstreamIcSt11char_traitsIcEEC2EPKcSt13_Ios_Openmode(ptr noundef nonnull align 8 dereferenceable(248) %19, ptr noundef %33, ptr noundef %32, i32 noundef 16)
          to label %34 unwind label %57

34:                                               ; preds = %5
  %35 = load ptr, ptr %20, align 8
  store ptr %35, ptr %19, align 8
  %36 = getelementptr inbounds ptr, ptr %20, i64 5
  %37 = load ptr, ptr %36, align 8
  %38 = load ptr, ptr %19, align 8
  %39 = getelementptr i8, ptr %38, i64 -24
  %40 = load i64, ptr %39, align 8
  %41 = getelementptr inbounds i8, ptr %19, i64 %40
  store ptr %37, ptr %41, align 8
  %42 = load ptr, ptr %19, align 8
  %43 = getelementptr i8, ptr %42, i64 -24
  %44 = load i64, ptr %43, align 8
  %45 = getelementptr inbounds i8, ptr %19, i64 %44
  %46 = invoke noundef zeroext i1 @_ZNKSt9basic_iosIcSt11char_traitsIcEEntEv(ptr noundef nonnull align 8 dereferenceable(264) %45)
          to label %47 unwind label %61

47:                                               ; preds = %34
  br i1 %46, label %48, label %69

48:                                               ; preds = %47
  %49 = load i8, ptr %9, align 1
  %50 = trunc i8 %49 to i1
  br i1 %50, label %69, label %51

51:                                               ; preds = %48
  %52 = getelementptr inbounds i8, ptr %19, i64 248
  %53 = getelementptr inbounds %class.cmGeneratedFileStreamBase, ptr %52, i32 0, i32 2
  invoke void @_ZStplIcSt11char_traitsIcESaIcEENSt7__cxx1112basic_stringIT_T0_T1_EEPKS5_RKS8_(ptr dead_on_unwind writable sret(%"class.std::__cxx11::basic_string") align 8 %13, ptr noundef @.str, ptr noundef nonnull align 8 dereferenceable(32) %53)
          to label %54 unwind label %61

54:                                               ; preds = %51
  invoke void @_ZN13cmSystemTools5ErrorERKNSt7__cxx1112basic_stringIcSt11char_traitsIcESaIcEEE(ptr noundef nonnull align 8 dereferenceable(32) %13)
          to label %55 unwind label %65

55:                                               ; preds = %54
  call void @_ZNSt7__cxx1112basic_stringIcSt11char_traitsIcESaIcEED1Ev(ptr noundef nonnull align 8 dereferenceable(32) %13) #3
  invoke void @_ZN13cmSystemTools21ReportLastSystemErrorEPKc(ptr noundef @.str.1)
          to label %56 unwind label %61

56:                                               ; preds = %55
  br label %69

57:                                               ; preds = %5
  %58 = landingpad { ptr, i32 }
          cleanup
  %59 = extractvalue { ptr, i32 } %58, 0
  store ptr %59, ptr %11, align 8
  %60 = extractvalue { ptr, i32 } %58, 1
  store i32 %60, ptr %12, align 4
  br label %111

61:                                               ; preds = %104, %72, %55, %51, %34
  %62 = landingpad { ptr, i32 }
          cleanup
  %63 = extractvalue { ptr, i32 } %62, 0
  store ptr %63, ptr %11, align 8
  %64 = extractvalue { ptr, i32 } %62, 1
  store i32 %64, ptr %12, align 4
  br label %109

65:                                               ; preds = %54
  %66 = landingpad { ptr, i32 }
          cleanup
  %67 = extractvalue { ptr, i32 } %66, 0
  store ptr %67, ptr %11, align 8
  %68 = extractvalue { ptr, i32 } %66, 1
  store i32 %68, ptr %12, align 4
  call void @_ZNSt7__cxx1112basic_stringIcSt11char_traitsIcESaIcEED1Ev(ptr noundef nonnull align 8 dereferenceable(32) %13) #3
  br label %109

69:                                               ; preds = %56, %48, %47
  %70 = load i32, ptr %10, align 4
  %71 = icmp ne i32 %70, 0
  br i1 %71, label %72, label %101

72:                                               ; preds = %69
  %73 = load ptr, ptr %19, align 8
  %74 = getelementptr i8, ptr %73, i64 -24
  %75 = load i64, ptr %74, align 8
  %76 = getelementptr inbounds i8, ptr %19, i64 %75
  %77 = load ptr, ptr %19, align 8
  %78 = getelementptr i8, ptr %77, i64 -24
  %79 = load i64, ptr %78, align 8
  %80 = getelementptr inbounds i8, ptr %19, i64 %79
  invoke void @_ZNKSt8ios_base6getlocEv(ptr dead_on_unwind writable sret(%"class.std::locale") align 8 %16, ptr noundef nonnull align 8 dereferenceable(216) %80)
          to label %81 unwind label %61

81:                                               ; preds = %72
  %82 = invoke noalias noundef nonnull ptr @_Znwm(i64 noundef 32) #11
          to label %83 unwind label %88

83:                                               ; preds = %81
  %84 = load i32, ptr %10, align 4
  invoke void @_ZN7codecvtC1E16codecvt_Encoding(ptr noundef nonnull align 8 dereferenceable(25) %82, i32 noundef %84)
          to label %85 unwind label %92

85:                                               ; preds = %83
  invoke void @_ZNSt6localeC2I7codecvtEERKS_PT_(ptr noundef nonnull align 8 dereferenceable(8) %15, ptr noundef nonnull align 8 dereferenceable(8) %16, ptr noundef %82)
          to label %86 unwind label %88

86:                                               ; preds = %85
  invoke void @_ZNSt9basic_iosIcSt11char_traitsIcEE5imbueERKSt6locale(ptr dead_on_unwind writable sret(%"class.std::locale") align 8 %14, ptr noundef nonnull align 8 dereferenceable(264) %76, ptr noundef nonnull align 8 dereferenceable(8) %15)
          to label %87 unwind label %96

87:                                               ; preds = %86
  call void @_ZNSt6localeD1Ev(ptr noundef nonnull align 8 dereferenceable(8) %14) #3
  call void @_ZNSt6localeD1Ev(ptr noundef nonnull align 8 dereferenceable(8) %15) #3
  call void @_ZNSt6localeD1Ev(ptr noundef nonnull align 8 dereferenceable(8) %16) #3
  br label %101

88:                                               ; preds = %85, %81
  %89 = landingpad { ptr, i32 }
          cleanup
  %90 = extractvalue { ptr, i32 } %89, 0
  store ptr %90, ptr %11, align 8
  %91 = extractvalue { ptr, i32 } %89, 1
  store i32 %91, ptr %12, align 4
  br label %100

92:                                               ; preds = %83
  %93 = landingpad { ptr, i32 }
          cleanup
  %94 = extractvalue { ptr, i32 } %93, 0
  store ptr %94, ptr %11, align 8
  %95 = extractvalue { ptr, i32 } %93, 1
  store i32 %95, ptr %12, align 4
  call void @_ZdlPv(ptr noundef %82) #12
  br label %100

96:                                               ; preds = %86
  %97 = landingpad { ptr, i32 }
          cleanup
  %98 = extractvalue { ptr, i32 } %97, 0
  store ptr %98, ptr %11, align 8
  %99 = extractvalue { ptr, i32 } %97, 1
  store i32 %99, ptr %12, align 4
  call void @_ZNSt6localeD1Ev(ptr noundef nonnull align 8 dereferenceable(8) %15) #3
  br label %100

100:                                              ; preds = %96, %92, %88
  call void @_ZNSt6localeD1Ev(ptr noundef nonnull align 8 dereferenceable(8) %16) #3
  br label %109

101:                                              ; preds = %87, %69
  %102 = load i32, ptr %10, align 4
  %103 = icmp eq i32 %102, 2
  br i1 %103, label %104, label %108

104:                                              ; preds = %101
  call void @llvm.memcpy.p0.p0.i64(ptr align 1 %17, ptr align 1 @__const.cmGeneratedFileStream.magic, i64 3, i1 false)
  %105 = getelementptr inbounds [3 x i8], ptr %17, i64 0, i64 0
  %106 = invoke noundef nonnull align 8 dereferenceable(8) ptr @_ZNSo5writeEPKcl(ptr noundef nonnull align 8 dereferenceable(8) %19, ptr noundef %105, i64 noundef 3)
          to label %107 unwind label %61

107:                                              ; preds = %104
  br label %108

108:                                              ; preds = %107, %101
  ret void

109:                                              ; preds = %100, %65, %61
  %110 = getelementptr inbounds ptr, ptr %20, i64 1
  call void @_ZNSt14basic_ofstreamIcSt11char_traitsIcEED2Ev(ptr noundef nonnull align 8 dereferenceable(248) %19, ptr noundef %110) #3
  br label %111

111:                                              ; preds = %109, %57
  %112 = getelementptr inbounds i8, ptr %19, i64 248
  call void @_ZN25cmGeneratedFileStreamBaseD2Ev(ptr noundef nonnull align 8 dereferenceable(100) %112) #3
  br label %113

113:                                              ; preds = %111
  %114 = load ptr, ptr %11, align 8
  %115 = load i32, ptr %12, align 4
  %116 = insertvalue { ptr, i32 } poison, ptr %114, 0
  %117 = insertvalue { ptr, i32 } %116, i32 %115, 1
  resume { ptr, i32 } %117
}