; Function Attrs: mustprogress uwtable
define dso_local void @_ZN21cmGeneratedFileStreamC2ERKNSt7__cxx1112basic_stringIcSt11char_traitsIcESaIcEEEb16codecvt_Encoding(ptr noundef nonnull align 8 dereferenceable(348) %0, ptr noundef %1, ptr noundef nonnull align 8 dereferenceable(32) %2, i1 noundef zeroext %3, i32 noundef %4) unnamed_addr #3 align 2 personality ptr @__gxx_personality_v0 {
  %6 = alloca %"class.std::__cxx11::basic_string", align 8
  %7 = alloca %"class.std::locale", align 8
  %8 = alloca %"class.std::locale", align 8
  %9 = alloca %"class.std::locale", align 8
  %10 = alloca [3 x i8], align 1
  %11 = getelementptr inbounds i8, ptr %0, i64 248
  tail call void @_ZNSt7__cxx1112basic_stringIcSt11char_traitsIcESaIcEEC1Ev(ptr noundef nonnull align 8 dereferenceable(32) %11) #15
  %12 = getelementptr inbounds i8, ptr %0, i64 280
  tail call void @_ZNSt7__cxx1112basic_stringIcSt11char_traitsIcESaIcEEC1Ev(ptr noundef nonnull align 8 dereferenceable(32) %12) #15
  %13 = getelementptr inbounds i8, ptr %0, i64 312
  tail call void @_ZNSt7__cxx1112basic_stringIcSt11char_traitsIcESaIcEEC1Ev(ptr noundef nonnull align 8 dereferenceable(32) %13) #15
  %14 = getelementptr inbounds i8, ptr %0, i64 344
  store <4 x i8> <i8 0, i8 0, i8 0, i8 1>, ptr %14, align 8
  invoke void @_ZN25cmGeneratedFileStreamBase4OpenERKNSt7__cxx1112basic_stringIcSt11char_traitsIcESaIcEEE(ptr noundef nonnull align 8 dereferenceable(100) %11, ptr noundef nonnull align 8 dereferenceable(32) %2)
          to label %_ZN25cmGeneratedFileStreamBaseC2ERKNSt7__cxx1112basic_stringIcSt11char_traitsIcESaIcEEE.exit unwind label %15

common.resume:                                    ; preds = %70, %15
  %common.resume.op = phi { ptr, i32 } [ %16, %15 ], [ %.pn13.pn, %70 ]
  resume { ptr, i32 } %common.resume.op

15:                                               ; preds = %5
  %16 = landingpad { ptr, i32 }
          cleanup
  tail call void @_ZNSt7__cxx1112basic_stringIcSt11char_traitsIcESaIcEED1Ev(ptr noundef nonnull align 8 dereferenceable(32) %13) #15
  tail call void @_ZNSt7__cxx1112basic_stringIcSt11char_traitsIcESaIcEED1Ev(ptr noundef nonnull align 8 dereferenceable(32) %12) #15
  tail call void @_ZNSt7__cxx1112basic_stringIcSt11char_traitsIcESaIcEED1Ev(ptr noundef nonnull align 8 dereferenceable(32) %11) #15
  br label %common.resume

_ZN25cmGeneratedFileStreamBaseC2ERKNSt7__cxx1112basic_stringIcSt11char_traitsIcESaIcEEE.exit: ; preds = %5
  %17 = load ptr, ptr %1, align 8
  store ptr %17, ptr %0, align 8
  %18 = getelementptr inbounds i8, ptr %1, i64 40
  %19 = load ptr, ptr %18, align 8
  %20 = getelementptr i8, ptr %17, i64 -24
  %21 = load i64, ptr %20, align 8
  %22 = getelementptr inbounds i8, ptr %0, i64 %21
  store ptr %19, ptr %22, align 8
  %23 = tail call noundef ptr @_ZNKSt7__cxx1112basic_stringIcSt11char_traitsIcESaIcEE5c_strEv(ptr noundef nonnull align 8 dereferenceable(32) %13) #15
  %24 = getelementptr inbounds i8, ptr %1, i64 8
  invoke void @_ZNSt14basic_ofstreamIcSt11char_traitsIcEEC2EPKcSt13_Ios_Openmode(ptr noundef nonnull align 8 dereferenceable(248) %0, ptr noundef nonnull %24, ptr noundef %23, i32 noundef 16)
          to label %25 unwind label %40

25:                                               ; preds = %_ZN25cmGeneratedFileStreamBaseC2ERKNSt7__cxx1112basic_stringIcSt11char_traitsIcESaIcEEE.exit
  %26 = load ptr, ptr %1, align 8
  store ptr %26, ptr %0, align 8
  %27 = load ptr, ptr %18, align 8
  %28 = getelementptr i8, ptr %26, i64 -24
  %29 = load i64, ptr %28, align 8
  %30 = getelementptr inbounds i8, ptr %0, i64 %29
  store ptr %27, ptr %30, align 8
  %31 = load ptr, ptr %0, align 8
  %32 = getelementptr i8, ptr %31, i64 -24
  %33 = load i64, ptr %32, align 8
  %34 = getelementptr inbounds i8, ptr %0, i64 %33
  %35 = invoke noundef zeroext i1 @_ZNKSt9basic_iosIcSt11char_traitsIcEEntEv(ptr noundef nonnull align 8 dereferenceable(264) %34)
          to label %36 unwind label %42

36:                                               ; preds = %25
  %.not16 = xor i1 %35, true
  %brmerge = or i1 %.not16, %3
  br i1 %brmerge, label %46, label %37

37:                                               ; preds = %36
  invoke void @_ZStplIcSt11char_traitsIcESaIcEENSt7__cxx1112basic_stringIT_T0_T1_EEPKS5_RKS8_(ptr dead_on_unwind nonnull writable sret(%"class.std::__cxx11::basic_string") align 8 %6, ptr noundef nonnull @.str, ptr noundef nonnull align 8 dereferenceable(32) %13)
          to label %38 unwind label %42

38:                                               ; preds = %37
  invoke void @_ZN13cmSystemTools5ErrorERKNSt7__cxx1112basic_stringIcSt11char_traitsIcESaIcEEE(ptr noundef nonnull align 8 dereferenceable(32) %6)
          to label %39 unwind label %44

39:                                               ; preds = %38
  call void @_ZNSt7__cxx1112basic_stringIcSt11char_traitsIcESaIcEED1Ev(ptr noundef nonnull align 8 dereferenceable(32) %6) #15
  invoke void @_ZN13cmSystemTools21ReportLastSystemErrorEPKc(ptr noundef nonnull @.str.1)
          to label %46 unwind label %42

40:                                               ; preds = %_ZN25cmGeneratedFileStreamBaseC2ERKNSt7__cxx1112basic_stringIcSt11char_traitsIcESaIcEEE.exit
  %41 = landingpad { ptr, i32 }
          cleanup
  br label %70

42:                                               ; preds = %66, %39, %37, %25
  %43 = landingpad { ptr, i32 }
          cleanup
  br label %69

44:                                               ; preds = %38
  %45 = landingpad { ptr, i32 }
          cleanup
  call void @_ZNSt7__cxx1112basic_stringIcSt11char_traitsIcESaIcEED1Ev(ptr noundef nonnull align 8 dereferenceable(32) %6) #15
  br label %69

46:                                               ; preds = %36, %39
  %cond = icmp eq i32 %4, 0
  br i1 %cond, label %68, label %47

47:                                               ; preds = %46
  %48 = load ptr, ptr %0, align 8
  %49 = getelementptr i8, ptr %48, i64 -24
  %50 = load i64, ptr %49, align 8
  %51 = getelementptr inbounds i8, ptr %0, i64 %50
  %52 = getelementptr inbounds i8, ptr %51, i64 208
  call void @_ZNSt6localeC1ERKS_(ptr noundef nonnull align 8 dereferenceable(8) %9, ptr noundef nonnull align 8 dereferenceable(8) %52) #15
  %53 = invoke noalias noundef nonnull dereferenceable(32) ptr @_Znwm(i64 noundef 32) #16
          to label %54 unwind label %59

54:                                               ; preds = %47
  invoke void @_ZN7codecvtC1E16codecvt_Encoding(ptr noundef nonnull align 8 dereferenceable(25) %53, i32 noundef %4)
          to label %55 unwind label %61

55:                                               ; preds = %54
  invoke void @_ZNSt6localeC2I7codecvtEERKS_PT_(ptr noundef nonnull align 8 dereferenceable(8) %8, ptr noundef nonnull align 8 dereferenceable(8) %9, ptr noundef nonnull %53)
          to label %56 unwind label %59

56:                                               ; preds = %55
  invoke void @_ZNSt9basic_iosIcSt11char_traitsIcEE5imbueERKSt6locale(ptr dead_on_unwind nonnull writable sret(%"class.std::locale") align 8 %7, ptr noundef nonnull align 8 dereferenceable(264) %51, ptr noundef nonnull align 8 dereferenceable(8) %8)
          to label %57 unwind label %63

57:                                               ; preds = %56
  call void @_ZNSt6localeD1Ev(ptr noundef nonnull align 8 dereferenceable(8) %7) #15
  call void @_ZNSt6localeD1Ev(ptr noundef nonnull align 8 dereferenceable(8) %8) #15
  call void @_ZNSt6localeD1Ev(ptr noundef nonnull align 8 dereferenceable(8) %9) #15
  %58 = icmp eq i32 %4, 2
  br i1 %58, label %66, label %68

59:                                               ; preds = %55, %47
  %60 = landingpad { ptr, i32 }
          cleanup
  br label %65

61:                                               ; preds = %54
  %62 = landingpad { ptr, i32 }
          cleanup
  call void @_ZdlPv(ptr noundef nonnull %53) #17
  br label %65

63:                                               ; preds = %56
  %64 = landingpad { ptr, i32 }
          cleanup
  call void @_ZNSt6localeD1Ev(ptr noundef nonnull align 8 dereferenceable(8) %8) #15
  br label %65

65:                                               ; preds = %63, %61, %59
  %.pn = phi { ptr, i32 } [ %64, %63 ], [ %60, %59 ], [ %62, %61 ]
  call void @_ZNSt6localeD1Ev(ptr noundef nonnull align 8 dereferenceable(8) %9) #15
  br label %69

66:                                               ; preds = %57
  call void @llvm.memcpy.p0.p0.i64(ptr noundef nonnull align 1 dereferenceable(3) %10, ptr noundef nonnull align 1 dereferenceable(3) @__const.cmGeneratedFileStream.magic, i64 3, i1 false)
  %67 = invoke noundef nonnull align 8 dereferenceable(8) ptr @_ZNSo5writeEPKcl(ptr noundef nonnull align 8 dereferenceable(8) %0, ptr noundef nonnull %10, i64 noundef 3)
          to label %68 unwind label %42

68:                                               ; preds = %46, %66, %57
  ret void

69:                                               ; preds = %65, %44, %42
  %.pn13 = phi { ptr, i32 } [ %43, %42 ], [ %.pn, %65 ], [ %45, %44 ]
  call void @_ZNSt14basic_ofstreamIcSt11char_traitsIcEED2Ev(ptr noundef nonnull align 8 dereferenceable(248) %0, ptr noundef nonnull %24) #15
  br label %70

70:                                               ; preds = %69, %40
  %.pn13.pn = phi { ptr, i32 } [ %.pn13, %69 ], [ %41, %40 ]
  call void @_ZN25cmGeneratedFileStreamBaseD2Ev(ptr noundef nonnull align 8 dereferenceable(100) %11) #15
  br label %common.resume
}